; ModuleID = 'source-C-CXX/57/1076.c'
source_filename = "source-C-CXX/57/1076.c"
target datalayout = "e-m:e-p270:32:32-p271:32:32-p272:64:64-i64:64-f80:128-n8:16:32:64-S128"
target triple = "x86_64-pc-linux-gnu"

@.str = private unnamed_addr constant [3 x i8] c"%d\00", align 1
@.str.1 = private unnamed_addr constant [3 x i8] c"%c\00", align 1
@str = private unnamed_addr constant [2 x i8] c"1\00", align 1
@str.4 = private unnamed_addr constant [2 x i8] c"0\00", align 1

; Function Attrs: nounwind sspstrong uwtable
define dso_local i32 @main() local_unnamed_addr #0 {
  %1 = alloca i32, align 4
  %2 = alloca [100 x [100 x i8]], align 16
  %3 = alloca i8, align 1
  %4 = bitcast i32* %1 to i8*
  call void @llvm.lifetime.start.p0i8(i64 4, i8* nonnull %4) #5
  %5 = getelementptr inbounds [100 x [100 x i8]], [100 x [100 x i8]]* %2, i64 0, i64 0, i64 0
  call void @llvm.lifetime.start.p0i8(i64 10000, i8* nonnull %5) #5
  %6 = call i32 (i8*, ...) @__isoc99_scanf(i8* getelementptr inbounds ([3 x i8], [3 x i8]* @.str, i64 0, i64 0), i32* nonnull %1)
  call void @llvm.lifetime.start.p0i8(i64 1, i8* nonnull %3) #5
  %7 = call i32 (i8*, ...) @__isoc99_scanf(i8* getelementptr inbounds ([3 x i8], [3 x i8]* @.str.1, i64 0, i64 0), i8* nonnull %3)
  %8 = load i32, i32* %1, align 4, !tbaa !5
  %9 = icmp sgt i32 %8, 0
  br i1 %9, label %12, label %60

10:                                               ; preds = %12
  %11 = icmp sgt i32 %17, 0
  br i1 %11, label %20, label %60

12:                                               ; preds = %0, %12
  %13 = phi i64 [ %16, %12 ], [ 0, %0 ]
  %14 = getelementptr inbounds [100 x [100 x i8]], [100 x [100 x i8]]* %2, i64 0, i64 %13, i64 0
  %15 = call i32 (i8*, ...) bitcast (i32 (...)* @gets to i32 (i8*, ...)*)(i8* nonnull %14) #5
  %16 = add nuw nsw i64 %13, 1
  %17 = load i32, i32* %1, align 4, !tbaa !5
  %18 = sext i32 %17 to i64
  %19 = icmp slt i64 %16, %18
  br i1 %19, label %12, label %10, !llvm.loop !9

20:                                               ; preds = %10, %53
  %21 = phi i64 [ %56, %53 ], [ 0, %10 ]
  %22 = getelementptr inbounds [100 x [100 x i8]], [100 x [100 x i8]]* %2, i64 0, i64 %21, i64 0
  %23 = load i8, i8* %22, align 4, !tbaa !11
  %24 = icmp eq i8 %23, 0
  br i1 %24, label %53, label %25

25:                                               ; preds = %20, %46
  %26 = phi i64 [ %47, %46 ], [ 0, %20 ]
  %27 = phi i8 [ %49, %46 ], [ %23, %20 ]
  %28 = icmp eq i64 %26, 0
  %29 = add i8 %27, -65
  %30 = icmp ult i8 %29, 26
  br i1 %28, label %31, label %37

31:                                               ; preds = %25
  br i1 %30, label %46, label %32

32:                                               ; preds = %31
  %33 = add i8 %27, -97
  %34 = icmp ult i8 %33, 26
  %35 = icmp eq i8 %27, 95
  %36 = or i1 %35, %34
  br i1 %36, label %46, label %53

37:                                               ; preds = %25
  br i1 %30, label %46, label %38

38:                                               ; preds = %37
  %39 = add i8 %27, -97
  %40 = icmp ult i8 %39, 26
  %41 = icmp eq i8 %27, 95
  %42 = or i1 %41, %40
  %43 = add i8 %27, -48
  %44 = icmp ult i8 %43, 10
  %45 = or i1 %44, %42
  br i1 %45, label %46, label %53

46:                                               ; preds = %37, %38, %31, %32
  %47 = add nuw i64 %26, 1
  %48 = getelementptr inbounds [100 x [100 x i8]], [100 x [100 x i8]]* %2, i64 0, i64 %21, i64 %47
  %49 = load i8, i8* %48, align 1, !tbaa !11
  %50 = icmp eq i8 %49, 0
  br i1 %50, label %51, label %25, !llvm.loop !12

51:                                               ; preds = %46
  %52 = select i1 %24, i8* getelementptr inbounds ([2 x i8], [2 x i8]* @str.4, i64 0, i64 0), i8* getelementptr inbounds ([2 x i8], [2 x i8]* @str, i64 0, i64 0)
  br label %53

53:                                               ; preds = %32, %38, %51, %20
  %54 = phi i8* [ getelementptr inbounds ([2 x i8], [2 x i8]* @str.4, i64 0, i64 0), %20 ], [ %52, %51 ], [ getelementptr inbounds ([2 x i8], [2 x i8]* @str.4, i64 0, i64 0), %38 ], [ getelementptr inbounds ([2 x i8], [2 x i8]* @str.4, i64 0, i64 0), %32 ]
  %55 = call i32 @puts(i8* nonnull dereferenceable(1) %54)
  %56 = add nuw nsw i64 %21, 1
  %57 = load i32, i32* %1, align 4, !tbaa !5
  %58 = sext i32 %57 to i64
  %59 = icmp slt i64 %56, %58
  br i1 %59, label %20, label %60, !llvm.loop !13

60:                                               ; preds = %53, %0, %10
  call void @llvm.lifetime.end.p0i8(i64 1, i8* nonnull %3) #5
  call void @llvm.lifetime.end.p0i8(i64 10000, i8* nonnull %5) #5
  call void @llvm.lifetime.end.p0i8(i64 4, i8* nonnull %4) #5
  ret i32 0
}

; Function Attrs: argmemonly mustprogress nofree nosync nounwind willreturn
declare void @llvm.lifetime.start.p0i8(i64 immarg, i8* nocapture) #1

; Function Attrs: nofree nounwind
declare noundef i32 @__isoc99_scanf(i8* nocapture noundef readonly, ...) local_unnamed_addr #2

declare i32 @gets(...) local_unnamed_addr #3

; Function Attrs: argmemonly mustprogress nofree nosync nounwind willreturn
declare void @llvm.lifetime.end.p0i8(i64 immarg, i8* nocapture) #1

; Function Attrs: nofree nounwind
declare noundef i32 @puts(i8* nocapture noundef readonly) local_unnamed_addr #4


!llvm.module.flags = !{!0, !1, !2, !3}
!llvm.ident = !{!4}

!0 = !{i32 1, !"wchar_size", i32 4}
!1 = !{i32 7, !"PIC Level", i32 2}
!2 = !{i32 7, !"PIE Level", i32 2}
!3 = !{i32 7, !"uwtable", i32 1}
!4 = !{!"clang version 13.0.0"}
!5 = !{!6, !6, i64 0}
!6 = !{!"int", !7, i64 0}
!7 = !{!"omnipotent char", !8, i64 0}
!8 = !{!"Simple C/C++ TBAA"}
!9 = distinct !{!9, !10}
!10 = !{!"llvm.loop.mustprogress"}
!11 = !{!7, !7, i64 0}
!12 = distinct !{!12, !10}
!13 = distinct !{!13, !10}
